
kernel.bin:     file format elf64-littleriscv


Disassembly of section test0:

0000000080000000 <_start>:
    80000000:	0002d117          	auipc	sp,0x2d
    80000004:	36810113          	addi	sp,sp,872 # 8002d368 <kernel_stack_start>
    80000008:	77c000ef          	jal	ra,80000784 <main>

000000008000000c <halt>:
    8000000c:	0000006f          	j	8000000c <halt>

Disassembly of section .text:

0000000080000100 <clear_bss>:
    80000100:	ff010113          	addi	sp,sp,-16
    80000104:	00113423          	sd	ra,8(sp)
    80000108:	00813023          	sd	s0,0(sp)
    8000010c:	01010413          	addi	s0,sp,16
    80000110:	0000d717          	auipc	a4,0xd
    80000114:	25870713          	addi	a4,a4,600 # 8000d368 <_bss_end>
    80000118:	00002797          	auipc	a5,0x2
    8000011c:	90878793          	addi	a5,a5,-1784 # 80001a20 <interrupt_stack>
    80000120:	40f707b3          	sub	a5,a4,a5
    80000124:	4037d793          	srai	a5,a5,0x3
    80000128:	00078613          	mv	a2,a5
    8000012c:	00000593          	li	a1,0
    80000130:	00002517          	auipc	a0,0x2
    80000134:	8f050513          	addi	a0,a0,-1808 # 80001a20 <interrupt_stack>
    80000138:	6b0010ef          	jal	ra,800017e8 <memset>
    8000013c:	00000013          	nop
    80000140:	00813083          	ld	ra,8(sp)
    80000144:	00013403          	ld	s0,0(sp)
    80000148:	01010113          	addi	sp,sp,16
    8000014c:	00008067          	ret

0000000080000150 <init>:
    80000150:	ff010113          	addi	sp,sp,-16
    80000154:	00113423          	sd	ra,8(sp)
    80000158:	00813023          	sd	s0,0(sp)
    8000015c:	01010413          	addi	s0,sp,16
    80000160:	fa1ff0ef          	jal	ra,80000100 <clear_bss>
    80000164:	6d8000ef          	jal	ra,8000083c <uart_init>
    80000168:	00000013          	nop
    8000016c:	00813083          	ld	ra,8(sp)
    80000170:	00013403          	ld	s0,0(sp)
    80000174:	01010113          	addi	sp,sp,16
    80000178:	00008067          	ret

000000008000017c <initTask>:
    8000017c:	fe010113          	addi	sp,sp,-32
    80000180:	00113c23          	sd	ra,24(sp)
    80000184:	00813823          	sd	s0,16(sp)
    80000188:	02010413          	addi	s0,sp,32
    8000018c:	fea43423          	sd	a0,-24(s0)
    80000190:	0000d797          	auipc	a5,0xd
    80000194:	1b878793          	addi	a5,a5,440 # 8000d348 <task_count>
    80000198:	0007b703          	ld	a4,0(a5)
    8000019c:	000017b7          	lui	a5,0x1
    800001a0:	01878793          	addi	a5,a5,24 # 1018 <STACK_SIZE+0xc18>
    800001a4:	02f70733          	mul	a4,a4,a5
    800001a8:	000017b7          	lui	a5,0x1
    800001ac:	01078793          	addi	a5,a5,16 # 1010 <STACK_SIZE+0xc10>
    800001b0:	00f70733          	add	a4,a4,a5
    800001b4:	00003797          	auipc	a5,0x3
    800001b8:	07c78793          	addi	a5,a5,124 # 80003230 <task_stack>
    800001bc:	00f707b3          	add	a5,a4,a5
    800001c0:	00878793          	addi	a5,a5,8
    800001c4:	0000d717          	auipc	a4,0xd
    800001c8:	18470713          	addi	a4,a4,388 # 8000d348 <task_count>
    800001cc:	00073603          	ld	a2,0(a4)
    800001d0:	f2078713          	addi	a4,a5,-224
    800001d4:	00003697          	auipc	a3,0x3
    800001d8:	05c68693          	addi	a3,a3,92 # 80003230 <task_stack>
    800001dc:	000017b7          	lui	a5,0x1
    800001e0:	01878793          	addi	a5,a5,24 # 1018 <STACK_SIZE+0xc18>
    800001e4:	02f607b3          	mul	a5,a2,a5
    800001e8:	00f687b3          	add	a5,a3,a5
    800001ec:	00e7b823          	sd	a4,16(a5)
    800001f0:	0000d797          	auipc	a5,0xd
    800001f4:	15878793          	addi	a5,a5,344 # 8000d348 <task_count>
    800001f8:	0007b683          	ld	a3,0(a5)
    800001fc:	00003717          	auipc	a4,0x3
    80000200:	03470713          	addi	a4,a4,52 # 80003230 <task_stack>
    80000204:	000017b7          	lui	a5,0x1
    80000208:	01878793          	addi	a5,a5,24 # 1018 <STACK_SIZE+0xc18>
    8000020c:	02f687b3          	mul	a5,a3,a5
    80000210:	00f707b3          	add	a5,a4,a5
    80000214:	0107b783          	ld	a5,16(a5)
    80000218:	fe843703          	ld	a4,-24(s0)
    8000021c:	00e7b023          	sd	a4,0(a5)
    80000220:	0000d797          	auipc	a5,0xd
    80000224:	12878793          	addi	a5,a5,296 # 8000d348 <task_count>
    80000228:	0007b683          	ld	a3,0(a5)
    8000022c:	0000d797          	auipc	a5,0xd
    80000230:	11c78793          	addi	a5,a5,284 # 8000d348 <task_count>
    80000234:	0007b603          	ld	a2,0(a5)
    80000238:	00003717          	auipc	a4,0x3
    8000023c:	ff870713          	addi	a4,a4,-8 # 80003230 <task_stack>
    80000240:	000017b7          	lui	a5,0x1
    80000244:	01878793          	addi	a5,a5,24 # 1018 <STACK_SIZE+0xc18>
    80000248:	02f687b3          	mul	a5,a3,a5
    8000024c:	00f707b3          	add	a5,a4,a5
    80000250:	0107b703          	ld	a4,16(a5)
    80000254:	00003697          	auipc	a3,0x3
    80000258:	fdc68693          	addi	a3,a3,-36 # 80003230 <task_stack>
    8000025c:	000017b7          	lui	a5,0x1
    80000260:	01878793          	addi	a5,a5,24 # 1018 <STACK_SIZE+0xc18>
    80000264:	02f607b3          	mul	a5,a2,a5
    80000268:	00f687b3          	add	a5,a3,a5
    8000026c:	00e7b423          	sd	a4,8(a5)
    80000270:	00001517          	auipc	a0,0x1
    80000274:	65050513          	addi	a0,a0,1616 # 800018c0 <malloc+0x68>
    80000278:	799000ef          	jal	ra,80001210 <puts>
    8000027c:	0000d797          	auipc	a5,0xd
    80000280:	0cc78793          	addi	a5,a5,204 # 8000d348 <task_count>
    80000284:	0007b703          	ld	a4,0(a5)
    80000288:	000017b7          	lui	a5,0x1
    8000028c:	01878793          	addi	a5,a5,24 # 1018 <STACK_SIZE+0xc18>
    80000290:	02f707b3          	mul	a5,a4,a5
    80000294:	01078713          	addi	a4,a5,16
    80000298:	00003797          	auipc	a5,0x3
    8000029c:	f9878793          	addi	a5,a5,-104 # 80003230 <task_stack>
    800002a0:	00f707b3          	add	a5,a4,a5
    800002a4:	00878793          	addi	a5,a5,8
    800002a8:	00002597          	auipc	a1,0x2
    800002ac:	78858593          	addi	a1,a1,1928 # 80002a30 <console_buf>
    800002b0:	00078513          	mv	a0,a5
    800002b4:	390010ef          	jal	ra,80001644 <hex2str>
    800002b8:	00002517          	auipc	a0,0x2
    800002bc:	77850513          	addi	a0,a0,1912 # 80002a30 <console_buf>
    800002c0:	751000ef          	jal	ra,80001210 <puts>
    800002c4:	00001517          	auipc	a0,0x1
    800002c8:	60c50513          	addi	a0,a0,1548 # 800018d0 <malloc+0x78>
    800002cc:	745000ef          	jal	ra,80001210 <puts>
    800002d0:	00001517          	auipc	a0,0x1
    800002d4:	60850513          	addi	a0,a0,1544 # 800018d8 <malloc+0x80>
    800002d8:	739000ef          	jal	ra,80001210 <puts>
    800002dc:	0000d797          	auipc	a5,0xd
    800002e0:	06c78793          	addi	a5,a5,108 # 8000d348 <task_count>
    800002e4:	0007b683          	ld	a3,0(a5)
    800002e8:	00003717          	auipc	a4,0x3
    800002ec:	f4870713          	addi	a4,a4,-184 # 80003230 <task_stack>
    800002f0:	000017b7          	lui	a5,0x1
    800002f4:	01878793          	addi	a5,a5,24 # 1018 <STACK_SIZE+0xc18>
    800002f8:	02f687b3          	mul	a5,a3,a5
    800002fc:	00f707b3          	add	a5,a4,a5
    80000300:	0107b783          	ld	a5,16(a5)
    80000304:	00002597          	auipc	a1,0x2
    80000308:	72c58593          	addi	a1,a1,1836 # 80002a30 <console_buf>
    8000030c:	00078513          	mv	a0,a5
    80000310:	334010ef          	jal	ra,80001644 <hex2str>
    80000314:	00002517          	auipc	a0,0x2
    80000318:	71c50513          	addi	a0,a0,1820 # 80002a30 <console_buf>
    8000031c:	6f5000ef          	jal	ra,80001210 <puts>
    80000320:	00001517          	auipc	a0,0x1
    80000324:	5b050513          	addi	a0,a0,1456 # 800018d0 <malloc+0x78>
    80000328:	6e9000ef          	jal	ra,80001210 <puts>
    8000032c:	00001517          	auipc	a0,0x1
    80000330:	5c450513          	addi	a0,a0,1476 # 800018f0 <malloc+0x98>
    80000334:	6dd000ef          	jal	ra,80001210 <puts>
    80000338:	0000d797          	auipc	a5,0xd
    8000033c:	01078793          	addi	a5,a5,16 # 8000d348 <task_count>
    80000340:	0007b683          	ld	a3,0(a5)
    80000344:	00003717          	auipc	a4,0x3
    80000348:	eec70713          	addi	a4,a4,-276 # 80003230 <task_stack>
    8000034c:	000017b7          	lui	a5,0x1
    80000350:	01878793          	addi	a5,a5,24 # 1018 <STACK_SIZE+0xc18>
    80000354:	02f687b3          	mul	a5,a3,a5
    80000358:	00f707b3          	add	a5,a4,a5
    8000035c:	0087b783          	ld	a5,8(a5)
    80000360:	00002597          	auipc	a1,0x2
    80000364:	6d058593          	addi	a1,a1,1744 # 80002a30 <console_buf>
    80000368:	00078513          	mv	a0,a5
    8000036c:	2d8010ef          	jal	ra,80001644 <hex2str>
    80000370:	00002517          	auipc	a0,0x2
    80000374:	6c050513          	addi	a0,a0,1728 # 80002a30 <console_buf>
    80000378:	699000ef          	jal	ra,80001210 <puts>
    8000037c:	00001517          	auipc	a0,0x1
    80000380:	55450513          	addi	a0,a0,1364 # 800018d0 <malloc+0x78>
    80000384:	68d000ef          	jal	ra,80001210 <puts>
    80000388:	0000d797          	auipc	a5,0xd
    8000038c:	fc078793          	addi	a5,a5,-64 # 8000d348 <task_count>
    80000390:	0007b783          	ld	a5,0(a5)
    80000394:	00178713          	addi	a4,a5,1
    80000398:	0000d797          	auipc	a5,0xd
    8000039c:	fb078793          	addi	a5,a5,-80 # 8000d348 <task_count>
    800003a0:	00e7b023          	sd	a4,0(a5)
    800003a4:	00000013          	nop
    800003a8:	01813083          	ld	ra,24(sp)
    800003ac:	01013403          	ld	s0,16(sp)
    800003b0:	02010113          	addi	sp,sp,32
    800003b4:	00008067          	ret

00000000800003b8 <taskSwitch>:
    800003b8:	fe010113          	addi	sp,sp,-32
    800003bc:	00113c23          	sd	ra,24(sp)
    800003c0:	00813823          	sd	s0,16(sp)
    800003c4:	02010413          	addi	s0,sp,32
    800003c8:	fea43423          	sd	a0,-24(s0)
    800003cc:	feb43023          	sd	a1,-32(s0)
    800003d0:	fe043783          	ld	a5,-32(s0)
    800003d4:	00878713          	addi	a4,a5,8
    800003d8:	fe843783          	ld	a5,-24(s0)
    800003dc:	00878793          	addi	a5,a5,8
    800003e0:	00078593          	mv	a1,a5
    800003e4:	00070513          	mv	a0,a4
    800003e8:	718000ef          	jal	ra,80000b00 <switch_context>
    800003ec:	00000013          	nop
    800003f0:	01813083          	ld	ra,24(sp)
    800003f4:	01013403          	ld	s0,16(sp)
    800003f8:	02010113          	addi	sp,sp,32
    800003fc:	00008067          	ret

0000000080000400 <schedule>:
    80000400:	fe010113          	addi	sp,sp,-32
    80000404:	00113c23          	sd	ra,24(sp)
    80000408:	00813823          	sd	s0,16(sp)
    8000040c:	02010413          	addi	s0,sp,32
    80000410:	0000d797          	auipc	a5,0xd
    80000414:	f4078793          	addi	a5,a5,-192 # 8000d350 <now_task_id>
    80000418:	0007b783          	ld	a5,0(a5)
    8000041c:	fef43423          	sd	a5,-24(s0)
    80000420:	0000d797          	auipc	a5,0xd
    80000424:	f3078793          	addi	a5,a5,-208 # 8000d350 <now_task_id>
    80000428:	0007b783          	ld	a5,0(a5)
    8000042c:	00178713          	addi	a4,a5,1
    80000430:	0000d797          	auipc	a5,0xd
    80000434:	f1878793          	addi	a5,a5,-232 # 8000d348 <task_count>
    80000438:	0007b783          	ld	a5,0(a5)
    8000043c:	02f777b3          	remu	a5,a4,a5
    80000440:	fef43023          	sd	a5,-32(s0)
    80000444:	0000d797          	auipc	a5,0xd
    80000448:	f0c78793          	addi	a5,a5,-244 # 8000d350 <now_task_id>
    8000044c:	fe043703          	ld	a4,-32(s0)
    80000450:	00e7b023          	sd	a4,0(a5)
    80000454:	00001517          	auipc	a0,0x1
    80000458:	4ac50513          	addi	a0,a0,1196 # 80001900 <malloc+0xa8>
    8000045c:	5b5000ef          	jal	ra,80001210 <puts>
    80000460:	00001517          	auipc	a0,0x1
    80000464:	4d050513          	addi	a0,a0,1232 # 80001930 <malloc+0xd8>
    80000468:	5a9000ef          	jal	ra,80001210 <puts>
    8000046c:	00002597          	auipc	a1,0x2
    80000470:	5c458593          	addi	a1,a1,1476 # 80002a30 <console_buf>
    80000474:	fe843503          	ld	a0,-24(s0)
    80000478:	1cc010ef          	jal	ra,80001644 <hex2str>
    8000047c:	00002517          	auipc	a0,0x2
    80000480:	5b450513          	addi	a0,a0,1460 # 80002a30 <console_buf>
    80000484:	58d000ef          	jal	ra,80001210 <puts>
    80000488:	00001517          	auipc	a0,0x1
    8000048c:	44850513          	addi	a0,a0,1096 # 800018d0 <malloc+0x78>
    80000490:	581000ef          	jal	ra,80001210 <puts>
    80000494:	00001517          	auipc	a0,0x1
    80000498:	4a450513          	addi	a0,a0,1188 # 80001938 <malloc+0xe0>
    8000049c:	575000ef          	jal	ra,80001210 <puts>
    800004a0:	00002597          	auipc	a1,0x2
    800004a4:	59058593          	addi	a1,a1,1424 # 80002a30 <console_buf>
    800004a8:	fe043503          	ld	a0,-32(s0)
    800004ac:	198010ef          	jal	ra,80001644 <hex2str>
    800004b0:	00002517          	auipc	a0,0x2
    800004b4:	58050513          	addi	a0,a0,1408 # 80002a30 <console_buf>
    800004b8:	559000ef          	jal	ra,80001210 <puts>
    800004bc:	00001517          	auipc	a0,0x1
    800004c0:	41450513          	addi	a0,a0,1044 # 800018d0 <malloc+0x78>
    800004c4:	54d000ef          	jal	ra,80001210 <puts>
    800004c8:	00001517          	auipc	a0,0x1
    800004cc:	47850513          	addi	a0,a0,1144 # 80001940 <malloc+0xe8>
    800004d0:	541000ef          	jal	ra,80001210 <puts>
    800004d4:	00003717          	auipc	a4,0x3
    800004d8:	d5c70713          	addi	a4,a4,-676 # 80003230 <task_stack>
    800004dc:	fe843683          	ld	a3,-24(s0)
    800004e0:	000017b7          	lui	a5,0x1
    800004e4:	01878793          	addi	a5,a5,24 # 1018 <STACK_SIZE+0xc18>
    800004e8:	02f687b3          	mul	a5,a3,a5
    800004ec:	00f707b3          	add	a5,a4,a5
    800004f0:	0087b783          	ld	a5,8(a5)
    800004f4:	00002597          	auipc	a1,0x2
    800004f8:	53c58593          	addi	a1,a1,1340 # 80002a30 <console_buf>
    800004fc:	00078513          	mv	a0,a5
    80000500:	144010ef          	jal	ra,80001644 <hex2str>
    80000504:	00002517          	auipc	a0,0x2
    80000508:	52c50513          	addi	a0,a0,1324 # 80002a30 <console_buf>
    8000050c:	505000ef          	jal	ra,80001210 <puts>
    80000510:	00001517          	auipc	a0,0x1
    80000514:	3c050513          	addi	a0,a0,960 # 800018d0 <malloc+0x78>
    80000518:	4f9000ef          	jal	ra,80001210 <puts>
    8000051c:	00001517          	auipc	a0,0x1
    80000520:	43450513          	addi	a0,a0,1076 # 80001950 <malloc+0xf8>
    80000524:	4ed000ef          	jal	ra,80001210 <puts>
    80000528:	00003717          	auipc	a4,0x3
    8000052c:	d0870713          	addi	a4,a4,-760 # 80003230 <task_stack>
    80000530:	fe043683          	ld	a3,-32(s0)
    80000534:	000017b7          	lui	a5,0x1
    80000538:	01878793          	addi	a5,a5,24 # 1018 <STACK_SIZE+0xc18>
    8000053c:	02f687b3          	mul	a5,a3,a5
    80000540:	00f707b3          	add	a5,a4,a5
    80000544:	0087b783          	ld	a5,8(a5)
    80000548:	00002597          	auipc	a1,0x2
    8000054c:	4e858593          	addi	a1,a1,1256 # 80002a30 <console_buf>
    80000550:	00078513          	mv	a0,a5
    80000554:	0f0010ef          	jal	ra,80001644 <hex2str>
    80000558:	00002517          	auipc	a0,0x2
    8000055c:	4d850513          	addi	a0,a0,1240 # 80002a30 <console_buf>
    80000560:	4b1000ef          	jal	ra,80001210 <puts>
    80000564:	00001517          	auipc	a0,0x1
    80000568:	36c50513          	addi	a0,a0,876 # 800018d0 <malloc+0x78>
    8000056c:	4a5000ef          	jal	ra,80001210 <puts>
    80000570:	00001517          	auipc	a0,0x1
    80000574:	3f050513          	addi	a0,a0,1008 # 80001960 <malloc+0x108>
    80000578:	499000ef          	jal	ra,80001210 <puts>
    8000057c:	fe843503          	ld	a0,-24(s0)
    80000580:	12c000ef          	jal	ra,800006ac <dump_register>
    80000584:	00001517          	auipc	a0,0x1
    80000588:	34c50513          	addi	a0,a0,844 # 800018d0 <malloc+0x78>
    8000058c:	485000ef          	jal	ra,80001210 <puts>
    80000590:	00001517          	auipc	a0,0x1
    80000594:	3e050513          	addi	a0,a0,992 # 80001970 <malloc+0x118>
    80000598:	479000ef          	jal	ra,80001210 <puts>
    8000059c:	fe043503          	ld	a0,-32(s0)
    800005a0:	10c000ef          	jal	ra,800006ac <dump_register>
    800005a4:	00001517          	auipc	a0,0x1
    800005a8:	32c50513          	addi	a0,a0,812 # 800018d0 <malloc+0x78>
    800005ac:	465000ef          	jal	ra,80001210 <puts>
    800005b0:	00001517          	auipc	a0,0x1
    800005b4:	3d050513          	addi	a0,a0,976 # 80001980 <malloc+0x128>
    800005b8:	459000ef          	jal	ra,80001210 <puts>
    800005bc:	fe843703          	ld	a4,-24(s0)
    800005c0:	000017b7          	lui	a5,0x1
    800005c4:	01878793          	addi	a5,a5,24 # 1018 <STACK_SIZE+0xc18>
    800005c8:	02f70733          	mul	a4,a4,a5
    800005cc:	00003797          	auipc	a5,0x3
    800005d0:	c6478793          	addi	a5,a5,-924 # 80003230 <task_stack>
    800005d4:	00f706b3          	add	a3,a4,a5
    800005d8:	fe043703          	ld	a4,-32(s0)
    800005dc:	000017b7          	lui	a5,0x1
    800005e0:	01878793          	addi	a5,a5,24 # 1018 <STACK_SIZE+0xc18>
    800005e4:	02f70733          	mul	a4,a4,a5
    800005e8:	00003797          	auipc	a5,0x3
    800005ec:	c4878793          	addi	a5,a5,-952 # 80003230 <task_stack>
    800005f0:	00f707b3          	add	a5,a4,a5
    800005f4:	00078593          	mv	a1,a5
    800005f8:	00068513          	mv	a0,a3
    800005fc:	dbdff0ef          	jal	ra,800003b8 <taskSwitch>
    80000600:	00000013          	nop
    80000604:	01813083          	ld	ra,24(sp)
    80000608:	01013403          	ld	s0,16(sp)
    8000060c:	02010113          	addi	sp,sp,32
    80000610:	00008067          	ret

0000000080000614 <task1>:
    80000614:	fe010113          	addi	sp,sp,-32
    80000618:	00113c23          	sd	ra,24(sp)
    8000061c:	00813823          	sd	s0,16(sp)
    80000620:	02010413          	addi	s0,sp,32
    80000624:	00001517          	auipc	a0,0x1
    80000628:	38c50513          	addi	a0,a0,908 # 800019b0 <malloc+0x158>
    8000062c:	3e5000ef          	jal	ra,80001210 <puts>
    80000630:	fe042623          	sw	zero,-20(s0)
    80000634:	0100006f          	j	80000644 <task1+0x30>
    80000638:	fec42783          	lw	a5,-20(s0)
    8000063c:	0017879b          	addiw	a5,a5,1
    80000640:	fef42623          	sw	a5,-20(s0)
    80000644:	fec42783          	lw	a5,-20(s0)
    80000648:	0007871b          	sext.w	a4,a5
    8000064c:	000f47b7          	lui	a5,0xf4
    80000650:	23f78793          	addi	a5,a5,575 # f423f <STACK_SIZE+0xf3e3f>
    80000654:	fee7d2e3          	bge	a5,a4,80000638 <task1+0x24>
    80000658:	da9ff0ef          	jal	ra,80000400 <schedule>
    8000065c:	fc9ff06f          	j	80000624 <task1+0x10>

0000000080000660 <task2>:
    80000660:	fe010113          	addi	sp,sp,-32
    80000664:	00113c23          	sd	ra,24(sp)
    80000668:	00813823          	sd	s0,16(sp)
    8000066c:	02010413          	addi	s0,sp,32
    80000670:	00001517          	auipc	a0,0x1
    80000674:	34850513          	addi	a0,a0,840 # 800019b8 <malloc+0x160>
    80000678:	399000ef          	jal	ra,80001210 <puts>
    8000067c:	fe042623          	sw	zero,-20(s0)
    80000680:	0100006f          	j	80000690 <task2+0x30>
    80000684:	fec42783          	lw	a5,-20(s0)
    80000688:	0017879b          	addiw	a5,a5,1
    8000068c:	fef42623          	sw	a5,-20(s0)
    80000690:	fec42783          	lw	a5,-20(s0)
    80000694:	0007871b          	sext.w	a4,a5
    80000698:	000f47b7          	lui	a5,0xf4
    8000069c:	23f78793          	addi	a5,a5,575 # f423f <STACK_SIZE+0xf3e3f>
    800006a0:	fee7d2e3          	bge	a5,a4,80000684 <task2+0x24>
    800006a4:	d5dff0ef          	jal	ra,80000400 <schedule>
    800006a8:	fc9ff06f          	j	80000670 <task2+0x10>

00000000800006ac <dump_register>:
    800006ac:	fd010113          	addi	sp,sp,-48
    800006b0:	02113423          	sd	ra,40(sp)
    800006b4:	02813023          	sd	s0,32(sp)
    800006b8:	03010413          	addi	s0,sp,48
    800006bc:	fca43c23          	sd	a0,-40(s0)
    800006c0:	00003717          	auipc	a4,0x3
    800006c4:	b7070713          	addi	a4,a4,-1168 # 80003230 <task_stack>
    800006c8:	fd843683          	ld	a3,-40(s0)
    800006cc:	000017b7          	lui	a5,0x1
    800006d0:	01878793          	addi	a5,a5,24 # 1018 <STACK_SIZE+0xc18>
    800006d4:	02f687b3          	mul	a5,a3,a5
    800006d8:	00f707b3          	add	a5,a4,a5
    800006dc:	0087b783          	ld	a5,8(a5)
    800006e0:	fef43023          	sd	a5,-32(s0)
    800006e4:	fe042623          	sw	zero,-20(s0)
    800006e8:	0740006f          	j	8000075c <dump_register+0xb0>
    800006ec:	fec42783          	lw	a5,-20(s0)
    800006f0:	00379793          	slli	a5,a5,0x3
    800006f4:	fe043703          	ld	a4,-32(s0)
    800006f8:	00f707b3          	add	a5,a4,a5
    800006fc:	0007b783          	ld	a5,0(a5)
    80000700:	00079a63          	bnez	a5,80000714 <dump_register+0x68>
    80000704:	00001517          	auipc	a0,0x1
    80000708:	2bc50513          	addi	a0,a0,700 # 800019c0 <malloc+0x168>
    8000070c:	305000ef          	jal	ra,80001210 <puts>
    80000710:	0340006f          	j	80000744 <dump_register+0x98>
    80000714:	fec42783          	lw	a5,-20(s0)
    80000718:	00379793          	slli	a5,a5,0x3
    8000071c:	fe043703          	ld	a4,-32(s0)
    80000720:	00f707b3          	add	a5,a4,a5
    80000724:	0007b783          	ld	a5,0(a5)
    80000728:	00002597          	auipc	a1,0x2
    8000072c:	30858593          	addi	a1,a1,776 # 80002a30 <console_buf>
    80000730:	00078513          	mv	a0,a5
    80000734:	711000ef          	jal	ra,80001644 <hex2str>
    80000738:	00002517          	auipc	a0,0x2
    8000073c:	2f850513          	addi	a0,a0,760 # 80002a30 <console_buf>
    80000740:	2d1000ef          	jal	ra,80001210 <puts>
    80000744:	00001517          	auipc	a0,0x1
    80000748:	18c50513          	addi	a0,a0,396 # 800018d0 <malloc+0x78>
    8000074c:	2c5000ef          	jal	ra,80001210 <puts>
    80000750:	fec42783          	lw	a5,-20(s0)
    80000754:	0017879b          	addiw	a5,a5,1
    80000758:	fef42623          	sw	a5,-20(s0)
    8000075c:	fec42783          	lw	a5,-20(s0)
    80000760:	00078713          	mv	a4,a5
    80000764:	01b00793          	li	a5,27
    80000768:	f8e7f2e3          	bgeu	a5,a4,800006ec <dump_register+0x40>
    8000076c:	00000013          	nop
    80000770:	00000013          	nop
    80000774:	02813083          	ld	ra,40(sp)
    80000778:	02013403          	ld	s0,32(sp)
    8000077c:	03010113          	addi	sp,sp,48
    80000780:	00008067          	ret

0000000080000784 <main>:
    80000784:	fe010113          	addi	sp,sp,-32
    80000788:	00113c23          	sd	ra,24(sp)
    8000078c:	00813823          	sd	s0,16(sp)
    80000790:	02010413          	addi	s0,sp,32
    80000794:	9bdff0ef          	jal	ra,80000150 <init>
    80000798:	00000517          	auipc	a0,0x0
    8000079c:	e7c50513          	addi	a0,a0,-388 # 80000614 <task1>
    800007a0:	9ddff0ef          	jal	ra,8000017c <initTask>
    800007a4:	00000517          	auipc	a0,0x0
    800007a8:	ebc50513          	addi	a0,a0,-324 # 80000660 <task2>
    800007ac:	9d1ff0ef          	jal	ra,8000017c <initTask>
    800007b0:	00003517          	auipc	a0,0x3
    800007b4:	a8850513          	addi	a0,a0,-1400 # 80003238 <task_stack+0x8>
    800007b8:	3c0000ef          	jal	ra,80000b78 <load_context>
    800007bc:	00001517          	auipc	a0,0x1
    800007c0:	21450513          	addi	a0,a0,532 # 800019d0 <malloc+0x178>
    800007c4:	24d000ef          	jal	ra,80001210 <puts>
    800007c8:	fe043423          	sd	zero,-24(s0)
    800007cc:	0100006f          	j	800007dc <main+0x58>
    800007d0:	fe843783          	ld	a5,-24(s0)
    800007d4:	00178793          	addi	a5,a5,1
    800007d8:	fef43423          	sd	a5,-24(s0)
    800007dc:	fe843703          	ld	a4,-24(s0)
    800007e0:	05f5e7b7          	lui	a5,0x5f5e
    800007e4:	0ff78793          	addi	a5,a5,255 # 5f5e0ff <STACK_SIZE+0x5f5dcff>
    800007e8:	fee7f4e3          	bgeu	a5,a4,800007d0 <main+0x4c>
    800007ec:	fd1ff06f          	j	800007bc <main+0x38>

00000000800007f0 <not_main>:
    800007f0:	ff010113          	addi	sp,sp,-16
    800007f4:	00113423          	sd	ra,8(sp)
    800007f8:	00813023          	sd	s0,0(sp)
    800007fc:	01010413          	addi	s0,sp,16
    80000800:	00001517          	auipc	a0,0x1
    80000804:	1e050513          	addi	a0,a0,480 # 800019e0 <malloc+0x188>
    80000808:	209000ef          	jal	ra,80001210 <puts>
    8000080c:	0000006f          	j	8000080c <not_main+0x1c>

0000000080000810 <trap_handler>:
    80000810:	fd010113          	addi	sp,sp,-48
    80000814:	02113423          	sd	ra,40(sp)
    80000818:	02813023          	sd	s0,32(sp)
    8000081c:	03010413          	addi	s0,sp,48
    80000820:	fea43423          	sd	a0,-24(s0)
    80000824:	feb43023          	sd	a1,-32(s0)
    80000828:	fcc43c23          	sd	a2,-40(s0)
    8000082c:	00001517          	auipc	a0,0x1
    80000830:	1c450513          	addi	a0,a0,452 # 800019f0 <malloc+0x198>
    80000834:	1dd000ef          	jal	ra,80001210 <puts>
    80000838:	0000006f          	j	80000838 <trap_handler+0x28>

000000008000083c <uart_init>:
    8000083c:	ff010113          	addi	sp,sp,-16
    80000840:	00813423          	sd	s0,8(sp)
    80000844:	01010413          	addi	s0,sp,16
    80000848:	100007b7          	lui	a5,0x10000
    8000084c:	00178793          	addi	a5,a5,1 # 10000001 <UART_ADDR+0x1>
    80000850:	00078023          	sb	zero,0(a5)
    80000854:	100007b7          	lui	a5,0x10000
    80000858:	00378793          	addi	a5,a5,3 # 10000003 <UART_ADDR+0x3>
    8000085c:	f8000713          	li	a4,-128
    80000860:	00e78023          	sb	a4,0(a5)
    80000864:	100007b7          	lui	a5,0x10000
    80000868:	00300713          	li	a4,3
    8000086c:	00e78023          	sb	a4,0(a5) # 10000000 <UART_ADDR>
    80000870:	100007b7          	lui	a5,0x10000
    80000874:	00178793          	addi	a5,a5,1 # 10000001 <UART_ADDR+0x1>
    80000878:	00078023          	sb	zero,0(a5)
    8000087c:	100007b7          	lui	a5,0x10000
    80000880:	00378793          	addi	a5,a5,3 # 10000003 <UART_ADDR+0x3>
    80000884:	00300713          	li	a4,3
    80000888:	00e78023          	sb	a4,0(a5)
    8000088c:	100007b7          	lui	a5,0x10000
    80000890:	00278793          	addi	a5,a5,2 # 10000002 <UART_ADDR+0x2>
    80000894:	00700713          	li	a4,7
    80000898:	00e78023          	sb	a4,0(a5)
    8000089c:	100007b7          	lui	a5,0x10000
    800008a0:	00178793          	addi	a5,a5,1 # 10000001 <UART_ADDR+0x1>
    800008a4:	00300713          	li	a4,3
    800008a8:	00e78023          	sb	a4,0(a5)
    800008ac:	00000013          	nop
    800008b0:	00813403          	ld	s0,8(sp)
    800008b4:	01010113          	addi	sp,sp,16
    800008b8:	00008067          	ret

00000000800008bc <uart_puts>:
    800008bc:	fe010113          	addi	sp,sp,-32
    800008c0:	00113c23          	sd	ra,24(sp)
    800008c4:	00813823          	sd	s0,16(sp)
    800008c8:	02010413          	addi	s0,sp,32
    800008cc:	fea43423          	sd	a0,-24(s0)
    800008d0:	0200006f          	j	800008f0 <uart_puts+0x34>
    800008d4:	fe843783          	ld	a5,-24(s0)
    800008d8:	0007c783          	lbu	a5,0(a5)
    800008dc:	00078513          	mv	a0,a5
    800008e0:	034000ef          	jal	ra,80000914 <uart_putc>
    800008e4:	fe843783          	ld	a5,-24(s0)
    800008e8:	00178793          	addi	a5,a5,1
    800008ec:	fef43423          	sd	a5,-24(s0)
    800008f0:	fe843783          	ld	a5,-24(s0)
    800008f4:	0007c783          	lbu	a5,0(a5)
    800008f8:	fc079ee3          	bnez	a5,800008d4 <uart_puts+0x18>
    800008fc:	00000013          	nop
    80000900:	00000013          	nop
    80000904:	01813083          	ld	ra,24(sp)
    80000908:	01013403          	ld	s0,16(sp)
    8000090c:	02010113          	addi	sp,sp,32
    80000910:	00008067          	ret

0000000080000914 <uart_putc>:
    80000914:	fe010113          	addi	sp,sp,-32
    80000918:	00113c23          	sd	ra,24(sp)
    8000091c:	00813823          	sd	s0,16(sp)
    80000920:	02010413          	addi	s0,sp,32
    80000924:	00050793          	mv	a5,a0
    80000928:	fef407a3          	sb	a5,-17(s0)
    8000092c:	080000ef          	jal	ra,800009ac <uart_start>
    80000930:	0000d797          	auipc	a5,0xd
    80000934:	a3078793          	addi	a5,a5,-1488 # 8000d360 <uart_tx_r>
    80000938:	0007b783          	ld	a5,0(a5)
    8000093c:	02078713          	addi	a4,a5,32
    80000940:	0000d797          	auipc	a5,0xd
    80000944:	a1878793          	addi	a5,a5,-1512 # 8000d358 <uart_tx_w>
    80000948:	0007b783          	ld	a5,0(a5)
    8000094c:	04f70463          	beq	a4,a5,80000994 <uart_putc+0x80>
    80000950:	0000d797          	auipc	a5,0xd
    80000954:	a0878793          	addi	a5,a5,-1528 # 8000d358 <uart_tx_w>
    80000958:	0007b783          	ld	a5,0(a5)
    8000095c:	01f7f793          	andi	a5,a5,31
    80000960:	0000d717          	auipc	a4,0xd
    80000964:	9c070713          	addi	a4,a4,-1600 # 8000d320 <uart_tx_buf>
    80000968:	00f707b3          	add	a5,a4,a5
    8000096c:	fef44703          	lbu	a4,-17(s0)
    80000970:	00e78023          	sb	a4,0(a5)
    80000974:	0000d797          	auipc	a5,0xd
    80000978:	9e478793          	addi	a5,a5,-1564 # 8000d358 <uart_tx_w>
    8000097c:	0007b783          	ld	a5,0(a5)
    80000980:	00178713          	addi	a4,a5,1
    80000984:	0000d797          	auipc	a5,0xd
    80000988:	9d478793          	addi	a5,a5,-1580 # 8000d358 <uart_tx_w>
    8000098c:	00e7b023          	sd	a4,0(a5)
    80000990:	00c0006f          	j	8000099c <uart_putc+0x88>
    80000994:	00000013          	nop
    80000998:	f95ff06f          	j	8000092c <uart_putc+0x18>
    8000099c:	01813083          	ld	ra,24(sp)
    800009a0:	01013403          	ld	s0,16(sp)
    800009a4:	02010113          	addi	sp,sp,32
    800009a8:	00008067          	ret

00000000800009ac <uart_start>:
    800009ac:	fe010113          	addi	sp,sp,-32
    800009b0:	00813c23          	sd	s0,24(sp)
    800009b4:	02010413          	addi	s0,sp,32
    800009b8:	0000d797          	auipc	a5,0xd
    800009bc:	9a078793          	addi	a5,a5,-1632 # 8000d358 <uart_tx_w>
    800009c0:	0007b703          	ld	a4,0(a5)
    800009c4:	0000d797          	auipc	a5,0xd
    800009c8:	99c78793          	addi	a5,a5,-1636 # 8000d360 <uart_tx_r>
    800009cc:	0007b783          	ld	a5,0(a5)
    800009d0:	06f70c63          	beq	a4,a5,80000a48 <uart_start+0x9c>
    800009d4:	100007b7          	lui	a5,0x10000
    800009d8:	00578793          	addi	a5,a5,5 # 10000005 <UART_ADDR+0x5>
    800009dc:	0007c783          	lbu	a5,0(a5)
    800009e0:	0ff7f793          	zext.b	a5,a5
    800009e4:	0007879b          	sext.w	a5,a5
    800009e8:	0207f793          	andi	a5,a5,32
    800009ec:	0007879b          	sext.w	a5,a5
    800009f0:	06078063          	beqz	a5,80000a50 <uart_start+0xa4>
    800009f4:	0000d797          	auipc	a5,0xd
    800009f8:	96c78793          	addi	a5,a5,-1684 # 8000d360 <uart_tx_r>
    800009fc:	0007b783          	ld	a5,0(a5)
    80000a00:	01f7f793          	andi	a5,a5,31
    80000a04:	0000d717          	auipc	a4,0xd
    80000a08:	91c70713          	addi	a4,a4,-1764 # 8000d320 <uart_tx_buf>
    80000a0c:	00f707b3          	add	a5,a4,a5
    80000a10:	0007c783          	lbu	a5,0(a5)
    80000a14:	fef42623          	sw	a5,-20(s0)
    80000a18:	0000d797          	auipc	a5,0xd
    80000a1c:	94878793          	addi	a5,a5,-1720 # 8000d360 <uart_tx_r>
    80000a20:	0007b783          	ld	a5,0(a5)
    80000a24:	00178713          	addi	a4,a5,1
    80000a28:	0000d797          	auipc	a5,0xd
    80000a2c:	93878793          	addi	a5,a5,-1736 # 8000d360 <uart_tx_r>
    80000a30:	00e7b023          	sd	a4,0(a5)
    80000a34:	100007b7          	lui	a5,0x10000
    80000a38:	fec42703          	lw	a4,-20(s0)
    80000a3c:	0ff77713          	zext.b	a4,a4
    80000a40:	00e78023          	sb	a4,0(a5) # 10000000 <UART_ADDR>
    80000a44:	f75ff06f          	j	800009b8 <uart_start+0xc>
    80000a48:	00000013          	nop
    80000a4c:	0080006f          	j	80000a54 <uart_start+0xa8>
    80000a50:	00000013          	nop
    80000a54:	01813403          	ld	s0,24(sp)
    80000a58:	02010113          	addi	sp,sp,32
    80000a5c:	00008067          	ret

0000000080000a60 <uart_getc>:
    80000a60:	ff010113          	addi	sp,sp,-16
    80000a64:	00813423          	sd	s0,8(sp)
    80000a68:	01010413          	addi	s0,sp,16
    80000a6c:	100007b7          	lui	a5,0x10000
    80000a70:	00578793          	addi	a5,a5,5 # 10000005 <UART_ADDR+0x5>
    80000a74:	0007c783          	lbu	a5,0(a5)
    80000a78:	0ff7f793          	zext.b	a5,a5
    80000a7c:	0007879b          	sext.w	a5,a5
    80000a80:	0017f793          	andi	a5,a5,1
    80000a84:	0007879b          	sext.w	a5,a5
    80000a88:	00078c63          	beqz	a5,80000aa0 <uart_getc+0x40>
    80000a8c:	100007b7          	lui	a5,0x10000
    80000a90:	0007c783          	lbu	a5,0(a5) # 10000000 <UART_ADDR>
    80000a94:	0ff7f793          	zext.b	a5,a5
    80000a98:	0007879b          	sext.w	a5,a5
    80000a9c:	0080006f          	j	80000aa4 <uart_getc+0x44>
    80000aa0:	fff00793          	li	a5,-1
    80000aa4:	00078513          	mv	a0,a5
    80000aa8:	00813403          	ld	s0,8(sp)
    80000aac:	01010113          	addi	sp,sp,16
    80000ab0:	00008067          	ret

0000000080000ab4 <uart_intr>:
    80000ab4:	fe010113          	addi	sp,sp,-32
    80000ab8:	00113c23          	sd	ra,24(sp)
    80000abc:	00813823          	sd	s0,16(sp)
    80000ac0:	02010413          	addi	s0,sp,32
    80000ac4:	f9dff0ef          	jal	ra,80000a60 <uart_getc>
    80000ac8:	00050793          	mv	a5,a0
    80000acc:	fef42623          	sw	a5,-20(s0)
    80000ad0:	fec42783          	lw	a5,-20(s0)
    80000ad4:	0007871b          	sext.w	a4,a5
    80000ad8:	fff00793          	li	a5,-1
    80000adc:	00f70463          	beq	a4,a5,80000ae4 <uart_intr+0x30>
    80000ae0:	fe5ff06f          	j	80000ac4 <uart_intr+0x10>
    80000ae4:	00000013          	nop
    80000ae8:	00000013          	nop
    80000aec:	01813083          	ld	ra,24(sp)
    80000af0:	01013403          	ld	s0,16(sp)
    80000af4:	02010113          	addi	sp,sp,32
    80000af8:	00008067          	ret
    80000afc:	0000                	unimp
	...

0000000080000b00 <switch_context>:
    80000b00:	f2010113          	addi	sp,sp,-224
    80000b04:	00113023          	sd	ra,0(sp)
    80000b08:	00313423          	sd	gp,8(sp)
    80000b0c:	00413823          	sd	tp,16(sp)
    80000b10:	00513c23          	sd	t0,24(sp)
    80000b14:	02613023          	sd	t1,32(sp)
    80000b18:	02713423          	sd	t2,40(sp)
    80000b1c:	02813823          	sd	s0,48(sp)
    80000b20:	02913c23          	sd	s1,56(sp)
    80000b24:	04c13023          	sd	a2,64(sp)
    80000b28:	04d13423          	sd	a3,72(sp)
    80000b2c:	04e13823          	sd	a4,80(sp)
    80000b30:	04f13c23          	sd	a5,88(sp)
    80000b34:	07013023          	sd	a6,96(sp)
    80000b38:	07113423          	sd	a7,104(sp)
    80000b3c:	07213823          	sd	s2,112(sp)
    80000b40:	07313c23          	sd	s3,120(sp)
    80000b44:	09413023          	sd	s4,128(sp)
    80000b48:	09513423          	sd	s5,136(sp)
    80000b4c:	09613823          	sd	s6,144(sp)
    80000b50:	09713c23          	sd	s7,152(sp)
    80000b54:	0b813023          	sd	s8,160(sp)
    80000b58:	0b913423          	sd	s9,168(sp)
    80000b5c:	0ba13823          	sd	s10,176(sp)
    80000b60:	0bb13c23          	sd	s11,184(sp)
    80000b64:	0dc13023          	sd	t3,192(sp)
    80000b68:	0dd13423          	sd	t4,200(sp)
    80000b6c:	0de13823          	sd	t5,208(sp)
    80000b70:	0df13c23          	sd	t6,216(sp)
    80000b74:	0025b023          	sd	sp,0(a1)

0000000080000b78 <load_context>:
    80000b78:	00053103          	ld	sp,0(a0)
    80000b7c:	00013083          	ld	ra,0(sp)
    80000b80:	00813183          	ld	gp,8(sp)
    80000b84:	01013203          	ld	tp,16(sp)
    80000b88:	01813283          	ld	t0,24(sp)
    80000b8c:	02013303          	ld	t1,32(sp)
    80000b90:	02813383          	ld	t2,40(sp)
    80000b94:	03013403          	ld	s0,48(sp)
    80000b98:	03813483          	ld	s1,56(sp)
    80000b9c:	04013603          	ld	a2,64(sp)
    80000ba0:	04813683          	ld	a3,72(sp)
    80000ba4:	05013703          	ld	a4,80(sp)
    80000ba8:	05813783          	ld	a5,88(sp)
    80000bac:	06013803          	ld	a6,96(sp)
    80000bb0:	06813883          	ld	a7,104(sp)
    80000bb4:	07013903          	ld	s2,112(sp)
    80000bb8:	07813983          	ld	s3,120(sp)
    80000bbc:	08013a03          	ld	s4,128(sp)
    80000bc0:	08813a83          	ld	s5,136(sp)
    80000bc4:	09013b03          	ld	s6,144(sp)
    80000bc8:	09813b83          	ld	s7,152(sp)
    80000bcc:	0a013c03          	ld	s8,160(sp)
    80000bd0:	0a813c83          	ld	s9,168(sp)
    80000bd4:	0b013d03          	ld	s10,176(sp)
    80000bd8:	0b813d83          	ld	s11,184(sp)
    80000bdc:	0c013e03          	ld	t3,192(sp)
    80000be0:	0c813e83          	ld	t4,200(sp)
    80000be4:	0d013f03          	ld	t5,208(sp)
    80000be8:	0d813f83          	ld	t6,216(sp)
    80000bec:	0e010113          	addi	sp,sp,224
    80000bf0:	00008067          	ret
    80000bf4:	00000013          	nop
    80000bf8:	00000013          	nop
    80000bfc:	00000013          	nop

0000000080000c00 <timer_handler>:
    80000c00:	f2010113          	addi	sp,sp,-224
    80000c04:	00113023          	sd	ra,0(sp)
    80000c08:	00213423          	sd	sp,8(sp)
    80000c0c:	00313823          	sd	gp,16(sp)
    80000c10:	00413c23          	sd	tp,24(sp)
    80000c14:	02513023          	sd	t0,32(sp)
    80000c18:	02613423          	sd	t1,40(sp)
    80000c1c:	02713823          	sd	t2,48(sp)
    80000c20:	02813c23          	sd	s0,56(sp)
    80000c24:	04913023          	sd	s1,64(sp)
    80000c28:	04a13423          	sd	a0,72(sp)
    80000c2c:	04c13c23          	sd	a2,88(sp)
    80000c30:	06d13023          	sd	a3,96(sp)
    80000c34:	06e13423          	sd	a4,104(sp)
    80000c38:	06f13823          	sd	a5,112(sp)
    80000c3c:	07013c23          	sd	a6,120(sp)
    80000c40:	09113023          	sd	a7,128(sp)
    80000c44:	09213423          	sd	s2,136(sp)
    80000c48:	09313823          	sd	s3,144(sp)
    80000c4c:	09413c23          	sd	s4,152(sp)
    80000c50:	0b513023          	sd	s5,160(sp)
    80000c54:	0b613423          	sd	s6,168(sp)
    80000c58:	0b713823          	sd	s7,176(sp)
    80000c5c:	0b813c23          	sd	s8,184(sp)
    80000c60:	0d913023          	sd	s9,192(sp)
    80000c64:	0da13423          	sd	s10,200(sp)
    80000c68:	0db13823          	sd	s11,208(sp)
    80000c6c:	0dc13c23          	sd	t3,216(sp)
    80000c70:	0fd13023          	sd	t4,224(sp)
    80000c74:	0fe13423          	sd	t5,232(sp)
    80000c78:	0ff13823          	sd	t6,240(sp)
    80000c7c:	00010513          	mv	a0,sp
    80000c80:	00010413          	mv	s0,sp
    80000c84:	0002c117          	auipc	sp,0x2c
    80000c88:	6e410113          	addi	sp,sp,1764 # 8002d368 <kernel_stack_start>
    80000c8c:	342025f3          	csrr	a1,mcause
    80000c90:	34102673          	csrr	a2,mepc
    80000c94:	b7dff0ef          	jal	ra,80000810 <trap_handler>
    80000c98:	00050113          	mv	sp,a0
    80000c9c:	00013083          	ld	ra,0(sp)
    80000ca0:	00813103          	ld	sp,8(sp)
    80000ca4:	01013183          	ld	gp,16(sp)
    80000ca8:	01813203          	ld	tp,24(sp)
    80000cac:	02013283          	ld	t0,32(sp)
    80000cb0:	02813303          	ld	t1,40(sp)
    80000cb4:	03013383          	ld	t2,48(sp)
    80000cb8:	03813403          	ld	s0,56(sp)
    80000cbc:	04013483          	ld	s1,64(sp)
    80000cc0:	04813503          	ld	a0,72(sp)
    80000cc4:	05013583          	ld	a1,80(sp)
    80000cc8:	05813603          	ld	a2,88(sp)
    80000ccc:	06013683          	ld	a3,96(sp)
    80000cd0:	06813703          	ld	a4,104(sp)
    80000cd4:	07013783          	ld	a5,112(sp)
    80000cd8:	07813803          	ld	a6,120(sp)
    80000cdc:	08013883          	ld	a7,128(sp)
    80000ce0:	08813903          	ld	s2,136(sp)
    80000ce4:	09013983          	ld	s3,144(sp)
    80000ce8:	09813a03          	ld	s4,152(sp)
    80000cec:	0a013a83          	ld	s5,160(sp)
    80000cf0:	0a813b03          	ld	s6,168(sp)
    80000cf4:	0b013b83          	ld	s7,176(sp)
    80000cf8:	0b813c03          	ld	s8,184(sp)
    80000cfc:	0c013c83          	ld	s9,192(sp)
    80000d00:	0c813d03          	ld	s10,200(sp)
    80000d04:	0d013d83          	ld	s11,208(sp)
    80000d08:	0d813e03          	ld	t3,216(sp)
    80000d0c:	0e013e83          	ld	t4,224(sp)
    80000d10:	0e813f03          	ld	t5,232(sp)
    80000d14:	0f013f83          	ld	t6,240(sp)
    80000d18:	30200073          	mret
	...

0000000080000f00 <trap_vectors>:
    80000f00:	0400006f          	j	80000f40 <undefined_handler>
    80000f04:	03c0006f          	j	80000f40 <undefined_handler>
    80000f08:	0380006f          	j	80000f40 <undefined_handler>
    80000f0c:	0340006f          	j	80000f40 <undefined_handler>
    80000f10:	0300006f          	j	80000f40 <undefined_handler>
    80000f14:	02c0006f          	j	80000f40 <undefined_handler>
    80000f18:	0280006f          	j	80000f40 <undefined_handler>
    80000f1c:	ce5ff06f          	j	80000c00 <timer_handler>
    80000f20:	0200006f          	j	80000f40 <undefined_handler>
    80000f24:	01c0006f          	j	80000f40 <undefined_handler>
    80000f28:	0180006f          	j	80000f40 <undefined_handler>
    80000f2c:	0140006f          	j	80000f40 <undefined_handler>
    80000f30:	0100006f          	j	80000f40 <undefined_handler>
    80000f34:	00c0006f          	j	80000f40 <undefined_handler>
    80000f38:	0080006f          	j	80000f40 <undefined_handler>
    80000f3c:	0040006f          	j	80000f40 <undefined_handler>

0000000080000f40 <undefined_handler>:
    80000f40:	30200073          	mret
	...

0000000080001004 <r_mhartid>:
    80001004:	fe010113          	addi	sp,sp,-32
    80001008:	00813c23          	sd	s0,24(sp)
    8000100c:	02010413          	addi	s0,sp,32
    80001010:	f14027f3          	csrr	a5,mhartid
    80001014:	fef43423          	sd	a5,-24(s0)
    80001018:	fe843783          	ld	a5,-24(s0)
    8000101c:	00078513          	mv	a0,a5
    80001020:	01813403          	ld	s0,24(sp)
    80001024:	02010113          	addi	sp,sp,32
    80001028:	00008067          	ret

000000008000102c <r_mstatus>:
    8000102c:	fe010113          	addi	sp,sp,-32
    80001030:	00813c23          	sd	s0,24(sp)
    80001034:	02010413          	addi	s0,sp,32
    80001038:	300027f3          	csrr	a5,mstatus
    8000103c:	fef43423          	sd	a5,-24(s0)
    80001040:	fe843783          	ld	a5,-24(s0)
    80001044:	00078513          	mv	a0,a5
    80001048:	01813403          	ld	s0,24(sp)
    8000104c:	02010113          	addi	sp,sp,32
    80001050:	00008067          	ret

0000000080001054 <w_mstatus>:
    80001054:	fe010113          	addi	sp,sp,-32
    80001058:	00813c23          	sd	s0,24(sp)
    8000105c:	02010413          	addi	s0,sp,32
    80001060:	fea43423          	sd	a0,-24(s0)
    80001064:	fe843783          	ld	a5,-24(s0)
    80001068:	30079073          	csrw	mstatus,a5
    8000106c:	00000013          	nop
    80001070:	01813403          	ld	s0,24(sp)
    80001074:	02010113          	addi	sp,sp,32
    80001078:	00008067          	ret

000000008000107c <r_mie>:
    8000107c:	fe010113          	addi	sp,sp,-32
    80001080:	00813c23          	sd	s0,24(sp)
    80001084:	02010413          	addi	s0,sp,32
    80001088:	304027f3          	csrr	a5,mie
    8000108c:	fef43423          	sd	a5,-24(s0)
    80001090:	fe843783          	ld	a5,-24(s0)
    80001094:	00078513          	mv	a0,a5
    80001098:	01813403          	ld	s0,24(sp)
    8000109c:	02010113          	addi	sp,sp,32
    800010a0:	00008067          	ret

00000000800010a4 <w_mie>:
    800010a4:	fe010113          	addi	sp,sp,-32
    800010a8:	00813c23          	sd	s0,24(sp)
    800010ac:	02010413          	addi	s0,sp,32
    800010b0:	fea43423          	sd	a0,-24(s0)
    800010b4:	fe843783          	ld	a5,-24(s0)
    800010b8:	30479073          	csrw	mie,a5
    800010bc:	00000013          	nop
    800010c0:	01813403          	ld	s0,24(sp)
    800010c4:	02010113          	addi	sp,sp,32
    800010c8:	00008067          	ret

00000000800010cc <timer_init>:
    800010cc:	fe010113          	addi	sp,sp,-32
    800010d0:	00113c23          	sd	ra,24(sp)
    800010d4:	00813823          	sd	s0,16(sp)
    800010d8:	02010413          	addi	s0,sp,32
    800010dc:	f51ff0ef          	jal	ra,8000102c <r_mstatus>
    800010e0:	fea43423          	sd	a0,-24(s0)
    800010e4:	fe843783          	ld	a5,-24(s0)
    800010e8:	0087e793          	ori	a5,a5,8
    800010ec:	fef43423          	sd	a5,-24(s0)
    800010f0:	fe843503          	ld	a0,-24(s0)
    800010f4:	f61ff0ef          	jal	ra,80001054 <w_mstatus>
    800010f8:	00000013          	nop
    800010fc:	01813083          	ld	ra,24(sp)
    80001100:	01013403          	ld	s0,16(sp)
    80001104:	02010113          	addi	sp,sp,32
    80001108:	00008067          	ret

000000008000110c <enable_timer>:
    8000110c:	fe010113          	addi	sp,sp,-32
    80001110:	00113c23          	sd	ra,24(sp)
    80001114:	00813823          	sd	s0,16(sp)
    80001118:	02010413          	addi	s0,sp,32
    8000111c:	ee9ff0ef          	jal	ra,80001004 <r_mhartid>
    80001120:	00050793          	mv	a5,a0
    80001124:	fef42623          	sw	a5,-20(s0)
    80001128:	00001797          	auipc	a5,0x1
    8000112c:	8f078793          	addi	a5,a5,-1808 # 80001a18 <CLINT_MTIME>
    80001130:	0007b783          	ld	a5,0(a5)
    80001134:	0007b683          	ld	a3,0(a5)
    80001138:	00001797          	auipc	a5,0x1
    8000113c:	8d078793          	addi	a5,a5,-1840 # 80001a08 <interval>
    80001140:	0007b703          	ld	a4,0(a5)
    80001144:	00001797          	auipc	a5,0x1
    80001148:	8cc78793          	addi	a5,a5,-1844 # 80001a10 <CLINT_MTIMECMP>
    8000114c:	0007b783          	ld	a5,0(a5)
    80001150:	00e68733          	add	a4,a3,a4
    80001154:	00e7b023          	sd	a4,0(a5)
    80001158:	f25ff0ef          	jal	ra,8000107c <r_mie>
    8000115c:	fea43023          	sd	a0,-32(s0)
    80001160:	fe043783          	ld	a5,-32(s0)
    80001164:	0807e793          	ori	a5,a5,128
    80001168:	fef43023          	sd	a5,-32(s0)
    8000116c:	fe043503          	ld	a0,-32(s0)
    80001170:	f35ff0ef          	jal	ra,800010a4 <w_mie>
    80001174:	00000013          	nop
    80001178:	01813083          	ld	ra,24(sp)
    8000117c:	01013403          	ld	s0,16(sp)
    80001180:	02010113          	addi	sp,sp,32
    80001184:	00008067          	ret

0000000080001188 <set_timer>:
    80001188:	ff010113          	addi	sp,sp,-16
    8000118c:	00813423          	sd	s0,8(sp)
    80001190:	01010413          	addi	s0,sp,16
    80001194:	00001797          	auipc	a5,0x1
    80001198:	88478793          	addi	a5,a5,-1916 # 80001a18 <CLINT_MTIME>
    8000119c:	0007b783          	ld	a5,0(a5)
    800011a0:	0007b683          	ld	a3,0(a5)
    800011a4:	00001797          	auipc	a5,0x1
    800011a8:	86478793          	addi	a5,a5,-1948 # 80001a08 <interval>
    800011ac:	0007b703          	ld	a4,0(a5)
    800011b0:	00001797          	auipc	a5,0x1
    800011b4:	86078793          	addi	a5,a5,-1952 # 80001a10 <CLINT_MTIMECMP>
    800011b8:	0007b783          	ld	a5,0(a5)
    800011bc:	00e68733          	add	a4,a3,a4
    800011c0:	00e7b023          	sd	a4,0(a5)
    800011c4:	00000013          	nop
    800011c8:	00813403          	ld	s0,8(sp)
    800011cc:	01010113          	addi	sp,sp,16
    800011d0:	00008067          	ret

00000000800011d4 <putc>:
    800011d4:	fe010113          	addi	sp,sp,-32
    800011d8:	00113c23          	sd	ra,24(sp)
    800011dc:	00813823          	sd	s0,16(sp)
    800011e0:	02010413          	addi	s0,sp,32
    800011e4:	00050793          	mv	a5,a0
    800011e8:	fef407a3          	sb	a5,-17(s0)
    800011ec:	fef44783          	lbu	a5,-17(s0)
    800011f0:	00078513          	mv	a0,a5
    800011f4:	f20ff0ef          	jal	ra,80000914 <uart_putc>
    800011f8:	00000793          	li	a5,0
    800011fc:	00078513          	mv	a0,a5
    80001200:	01813083          	ld	ra,24(sp)
    80001204:	01013403          	ld	s0,16(sp)
    80001208:	02010113          	addi	sp,sp,32
    8000120c:	00008067          	ret

0000000080001210 <puts>:
    80001210:	fe010113          	addi	sp,sp,-32
    80001214:	00113c23          	sd	ra,24(sp)
    80001218:	00813823          	sd	s0,16(sp)
    8000121c:	02010413          	addi	s0,sp,32
    80001220:	fea43423          	sd	a0,-24(s0)
    80001224:	fe843503          	ld	a0,-24(s0)
    80001228:	e94ff0ef          	jal	ra,800008bc <uart_puts>
    8000122c:	00000793          	li	a5,0
    80001230:	00078513          	mv	a0,a5
    80001234:	01813083          	ld	ra,24(sp)
    80001238:	01013403          	ld	s0,16(sp)
    8000123c:	02010113          	addi	sp,sp,32
    80001240:	00008067          	ret

0000000080001244 <getc>:
    80001244:	ff010113          	addi	sp,sp,-16
    80001248:	00113423          	sd	ra,8(sp)
    8000124c:	00813023          	sd	s0,0(sp)
    80001250:	01010413          	addi	s0,sp,16
    80001254:	80dff0ef          	jal	ra,80000a60 <uart_getc>
    80001258:	00050793          	mv	a5,a0
    8000125c:	00078513          	mv	a0,a5
    80001260:	00813083          	ld	ra,8(sp)
    80001264:	00013403          	ld	s0,0(sp)
    80001268:	01010113          	addi	sp,sp,16
    8000126c:	00008067          	ret

0000000080001270 <dec2str>:
    80001270:	fd010113          	addi	sp,sp,-48
    80001274:	02813423          	sd	s0,40(sp)
    80001278:	03010413          	addi	s0,sp,48
    8000127c:	fca43c23          	sd	a0,-40(s0)
    80001280:	fcb43823          	sd	a1,-48(s0)
    80001284:	fe042623          	sw	zero,-20(s0)
    80001288:	0480006f          	j	800012d0 <dec2str+0x60>
    8000128c:	fd843703          	ld	a4,-40(s0)
    80001290:	00a00793          	li	a5,10
    80001294:	02f777b3          	remu	a5,a4,a5
    80001298:	0ff7f713          	zext.b	a4,a5
    8000129c:	fec42783          	lw	a5,-20(s0)
    800012a0:	0017869b          	addiw	a3,a5,1
    800012a4:	fed42623          	sw	a3,-20(s0)
    800012a8:	00078693          	mv	a3,a5
    800012ac:	fd043783          	ld	a5,-48(s0)
    800012b0:	00d787b3          	add	a5,a5,a3
    800012b4:	0307071b          	addiw	a4,a4,48
    800012b8:	0ff77713          	zext.b	a4,a4
    800012bc:	00e78023          	sb	a4,0(a5)
    800012c0:	fd843703          	ld	a4,-40(s0)
    800012c4:	00a00793          	li	a5,10
    800012c8:	02f757b3          	divu	a5,a4,a5
    800012cc:	fcf43c23          	sd	a5,-40(s0)
    800012d0:	fd843783          	ld	a5,-40(s0)
    800012d4:	fa079ce3          	bnez	a5,8000128c <dec2str+0x1c>
    800012d8:	fe042423          	sw	zero,-24(s0)
    800012dc:	0800006f          	j	8000135c <dec2str+0xec>
    800012e0:	fe842783          	lw	a5,-24(s0)
    800012e4:	fd043703          	ld	a4,-48(s0)
    800012e8:	00f707b3          	add	a5,a4,a5
    800012ec:	0007c783          	lbu	a5,0(a5)
    800012f0:	fef403a3          	sb	a5,-25(s0)
    800012f4:	fec42783          	lw	a5,-20(s0)
    800012f8:	00078713          	mv	a4,a5
    800012fc:	fe842783          	lw	a5,-24(s0)
    80001300:	40f707bb          	subw	a5,a4,a5
    80001304:	0007879b          	sext.w	a5,a5
    80001308:	fff78793          	addi	a5,a5,-1
    8000130c:	fd043703          	ld	a4,-48(s0)
    80001310:	00f70733          	add	a4,a4,a5
    80001314:	fe842783          	lw	a5,-24(s0)
    80001318:	fd043683          	ld	a3,-48(s0)
    8000131c:	00f687b3          	add	a5,a3,a5
    80001320:	00074703          	lbu	a4,0(a4)
    80001324:	00e78023          	sb	a4,0(a5)
    80001328:	fec42783          	lw	a5,-20(s0)
    8000132c:	00078713          	mv	a4,a5
    80001330:	fe842783          	lw	a5,-24(s0)
    80001334:	40f707bb          	subw	a5,a4,a5
    80001338:	0007879b          	sext.w	a5,a5
    8000133c:	fff78793          	addi	a5,a5,-1
    80001340:	fd043703          	ld	a4,-48(s0)
    80001344:	00f707b3          	add	a5,a4,a5
    80001348:	fe744703          	lbu	a4,-25(s0)
    8000134c:	00e78023          	sb	a4,0(a5)
    80001350:	fe842783          	lw	a5,-24(s0)
    80001354:	0017879b          	addiw	a5,a5,1
    80001358:	fef42423          	sw	a5,-24(s0)
    8000135c:	fec42783          	lw	a5,-20(s0)
    80001360:	01f7d71b          	srliw	a4,a5,0x1f
    80001364:	00f707bb          	addw	a5,a4,a5
    80001368:	4017d79b          	sraiw	a5,a5,0x1
    8000136c:	0007871b          	sext.w	a4,a5
    80001370:	fe842783          	lw	a5,-24(s0)
    80001374:	0007879b          	sext.w	a5,a5
    80001378:	f6e7c4e3          	blt	a5,a4,800012e0 <dec2str+0x70>
    8000137c:	fec42783          	lw	a5,-20(s0)
    80001380:	fd043703          	ld	a4,-48(s0)
    80001384:	00f707b3          	add	a5,a4,a5
    80001388:	00078023          	sb	zero,0(a5)
    8000138c:	00000013          	nop
    80001390:	02813403          	ld	s0,40(sp)
    80001394:	03010113          	addi	sp,sp,48
    80001398:	00008067          	ret

000000008000139c <bin2str>:
    8000139c:	fd010113          	addi	sp,sp,-48
    800013a0:	02813423          	sd	s0,40(sp)
    800013a4:	03010413          	addi	s0,sp,48
    800013a8:	fca43c23          	sd	a0,-40(s0)
    800013ac:	fcb43823          	sd	a1,-48(s0)
    800013b0:	fe042623          	sw	zero,-20(s0)
    800013b4:	0440006f          	j	800013f8 <bin2str+0x5c>
    800013b8:	fd843783          	ld	a5,-40(s0)
    800013bc:	0ff7f793          	zext.b	a5,a5
    800013c0:	0017f793          	andi	a5,a5,1
    800013c4:	0ff7f713          	zext.b	a4,a5
    800013c8:	fec42783          	lw	a5,-20(s0)
    800013cc:	0017869b          	addiw	a3,a5,1
    800013d0:	fed42623          	sw	a3,-20(s0)
    800013d4:	00078693          	mv	a3,a5
    800013d8:	fd043783          	ld	a5,-48(s0)
    800013dc:	00d787b3          	add	a5,a5,a3
    800013e0:	0307071b          	addiw	a4,a4,48
    800013e4:	0ff77713          	zext.b	a4,a4
    800013e8:	00e78023          	sb	a4,0(a5)
    800013ec:	fd843783          	ld	a5,-40(s0)
    800013f0:	0017d793          	srli	a5,a5,0x1
    800013f4:	fcf43c23          	sd	a5,-40(s0)
    800013f8:	fd843783          	ld	a5,-40(s0)
    800013fc:	fa079ee3          	bnez	a5,800013b8 <bin2str+0x1c>
    80001400:	fe042423          	sw	zero,-24(s0)
    80001404:	0800006f          	j	80001484 <bin2str+0xe8>
    80001408:	fe842783          	lw	a5,-24(s0)
    8000140c:	fd043703          	ld	a4,-48(s0)
    80001410:	00f707b3          	add	a5,a4,a5
    80001414:	0007c783          	lbu	a5,0(a5)
    80001418:	fef403a3          	sb	a5,-25(s0)
    8000141c:	fec42783          	lw	a5,-20(s0)
    80001420:	00078713          	mv	a4,a5
    80001424:	fe842783          	lw	a5,-24(s0)
    80001428:	40f707bb          	subw	a5,a4,a5
    8000142c:	0007879b          	sext.w	a5,a5
    80001430:	fff78793          	addi	a5,a5,-1
    80001434:	fd043703          	ld	a4,-48(s0)
    80001438:	00f70733          	add	a4,a4,a5
    8000143c:	fe842783          	lw	a5,-24(s0)
    80001440:	fd043683          	ld	a3,-48(s0)
    80001444:	00f687b3          	add	a5,a3,a5
    80001448:	00074703          	lbu	a4,0(a4)
    8000144c:	00e78023          	sb	a4,0(a5)
    80001450:	fec42783          	lw	a5,-20(s0)
    80001454:	00078713          	mv	a4,a5
    80001458:	fe842783          	lw	a5,-24(s0)
    8000145c:	40f707bb          	subw	a5,a4,a5
    80001460:	0007879b          	sext.w	a5,a5
    80001464:	fff78793          	addi	a5,a5,-1
    80001468:	fd043703          	ld	a4,-48(s0)
    8000146c:	00f707b3          	add	a5,a4,a5
    80001470:	fe744703          	lbu	a4,-25(s0)
    80001474:	00e78023          	sb	a4,0(a5)
    80001478:	fe842783          	lw	a5,-24(s0)
    8000147c:	0017879b          	addiw	a5,a5,1
    80001480:	fef42423          	sw	a5,-24(s0)
    80001484:	fec42783          	lw	a5,-20(s0)
    80001488:	01f7d71b          	srliw	a4,a5,0x1f
    8000148c:	00f707bb          	addw	a5,a4,a5
    80001490:	4017d79b          	sraiw	a5,a5,0x1
    80001494:	0007871b          	sext.w	a4,a5
    80001498:	fe842783          	lw	a5,-24(s0)
    8000149c:	0007879b          	sext.w	a5,a5
    800014a0:	f6e7c4e3          	blt	a5,a4,80001408 <bin2str+0x6c>
    800014a4:	fec42783          	lw	a5,-20(s0)
    800014a8:	fd043703          	ld	a4,-48(s0)
    800014ac:	00f707b3          	add	a5,a4,a5
    800014b0:	00078023          	sb	zero,0(a5)
    800014b4:	00000013          	nop
    800014b8:	02813403          	ld	s0,40(sp)
    800014bc:	03010113          	addi	sp,sp,48
    800014c0:	00008067          	ret

00000000800014c4 <hex2strd>:
    800014c4:	fc010113          	addi	sp,sp,-64
    800014c8:	02813c23          	sd	s0,56(sp)
    800014cc:	04010413          	addi	s0,sp,64
    800014d0:	fca43c23          	sd	a0,-40(s0)
    800014d4:	fcb43823          	sd	a1,-48(s0)
    800014d8:	00060793          	mv	a5,a2
    800014dc:	fcf42623          	sw	a5,-52(s0)
    800014e0:	fe042623          	sw	zero,-20(s0)
    800014e4:	03c0006f          	j	80001520 <hex2strd+0x5c>
    800014e8:	fd843783          	ld	a5,-40(s0)
    800014ec:	0ff7f713          	zext.b	a4,a5
    800014f0:	fec42783          	lw	a5,-20(s0)
    800014f4:	0017869b          	addiw	a3,a5,1
    800014f8:	fed42623          	sw	a3,-20(s0)
    800014fc:	00078693          	mv	a3,a5
    80001500:	fd043783          	ld	a5,-48(s0)
    80001504:	00d787b3          	add	a5,a5,a3
    80001508:	00f77713          	andi	a4,a4,15
    8000150c:	0ff77713          	zext.b	a4,a4
    80001510:	00e78023          	sb	a4,0(a5)
    80001514:	fd843783          	ld	a5,-40(s0)
    80001518:	0047d793          	srli	a5,a5,0x4
    8000151c:	fcf43c23          	sd	a5,-40(s0)
    80001520:	fd843783          	ld	a5,-40(s0)
    80001524:	fc0792e3          	bnez	a5,800014e8 <hex2strd+0x24>
    80001528:	fe042423          	sw	zero,-24(s0)
    8000152c:	0800006f          	j	800015ac <hex2strd+0xe8>
    80001530:	fe842783          	lw	a5,-24(s0)
    80001534:	fd043703          	ld	a4,-48(s0)
    80001538:	00f707b3          	add	a5,a4,a5
    8000153c:	0007c783          	lbu	a5,0(a5)
    80001540:	fef401a3          	sb	a5,-29(s0)
    80001544:	fec42783          	lw	a5,-20(s0)
    80001548:	00078713          	mv	a4,a5
    8000154c:	fe842783          	lw	a5,-24(s0)
    80001550:	40f707bb          	subw	a5,a4,a5
    80001554:	0007879b          	sext.w	a5,a5
    80001558:	fff78793          	addi	a5,a5,-1
    8000155c:	fd043703          	ld	a4,-48(s0)
    80001560:	00f70733          	add	a4,a4,a5
    80001564:	fe842783          	lw	a5,-24(s0)
    80001568:	fd043683          	ld	a3,-48(s0)
    8000156c:	00f687b3          	add	a5,a3,a5
    80001570:	00074703          	lbu	a4,0(a4)
    80001574:	00e78023          	sb	a4,0(a5)
    80001578:	fec42783          	lw	a5,-20(s0)
    8000157c:	00078713          	mv	a4,a5
    80001580:	fe842783          	lw	a5,-24(s0)
    80001584:	40f707bb          	subw	a5,a4,a5
    80001588:	0007879b          	sext.w	a5,a5
    8000158c:	fff78793          	addi	a5,a5,-1
    80001590:	fd043703          	ld	a4,-48(s0)
    80001594:	00f707b3          	add	a5,a4,a5
    80001598:	fe344703          	lbu	a4,-29(s0)
    8000159c:	00e78023          	sb	a4,0(a5)
    800015a0:	fe842783          	lw	a5,-24(s0)
    800015a4:	0017879b          	addiw	a5,a5,1
    800015a8:	fef42423          	sw	a5,-24(s0)
    800015ac:	fec42783          	lw	a5,-20(s0)
    800015b0:	01f7d71b          	srliw	a4,a5,0x1f
    800015b4:	00f707bb          	addw	a5,a4,a5
    800015b8:	4017d79b          	sraiw	a5,a5,0x1
    800015bc:	0007871b          	sext.w	a4,a5
    800015c0:	fe842783          	lw	a5,-24(s0)
    800015c4:	0007879b          	sext.w	a5,a5
    800015c8:	f6e7c4e3          	blt	a5,a4,80001530 <hex2strd+0x6c>
    800015cc:	fec42783          	lw	a5,-20(s0)
    800015d0:	fd043703          	ld	a4,-48(s0)
    800015d4:	00f707b3          	add	a5,a4,a5
    800015d8:	00078023          	sb	zero,0(a5)
    800015dc:	fe042223          	sw	zero,-28(s0)
    800015e0:	0240006f          	j	80001604 <hex2strd+0x140>
    800015e4:	fe442783          	lw	a5,-28(s0)
    800015e8:	fd043703          	ld	a4,-48(s0)
    800015ec:	00f707b3          	add	a5,a4,a5
    800015f0:	03000713          	li	a4,48
    800015f4:	00e78023          	sb	a4,0(a5)
    800015f8:	fe442783          	lw	a5,-28(s0)
    800015fc:	0017879b          	addiw	a5,a5,1
    80001600:	fef42223          	sw	a5,-28(s0)
    80001604:	fcc42783          	lw	a5,-52(s0)
    80001608:	00078713          	mv	a4,a5
    8000160c:	fec42783          	lw	a5,-20(s0)
    80001610:	40f707bb          	subw	a5,a4,a5
    80001614:	0007871b          	sext.w	a4,a5
    80001618:	fe442783          	lw	a5,-28(s0)
    8000161c:	0007879b          	sext.w	a5,a5
    80001620:	fce7c2e3          	blt	a5,a4,800015e4 <hex2strd+0x120>
    80001624:	fcc42783          	lw	a5,-52(s0)
    80001628:	fd043703          	ld	a4,-48(s0)
    8000162c:	00f707b3          	add	a5,a4,a5
    80001630:	00078023          	sb	zero,0(a5)
    80001634:	00000013          	nop
    80001638:	03813403          	ld	s0,56(sp)
    8000163c:	04010113          	addi	sp,sp,64
    80001640:	00008067          	ret

0000000080001644 <hex2str>:
    80001644:	fd010113          	addi	sp,sp,-48
    80001648:	02813423          	sd	s0,40(sp)
    8000164c:	03010413          	addi	s0,sp,48
    80001650:	fca43c23          	sd	a0,-40(s0)
    80001654:	fcb43823          	sd	a1,-48(s0)
    80001658:	fe042623          	sw	zero,-20(s0)
    8000165c:	0c00006f          	j	8000171c <hex2str+0xd8>
    80001660:	fd843783          	ld	a5,-40(s0)
    80001664:	0ff7f713          	zext.b	a4,a5
    80001668:	fec42783          	lw	a5,-20(s0)
    8000166c:	0017869b          	addiw	a3,a5,1
    80001670:	fed42623          	sw	a3,-20(s0)
    80001674:	00078693          	mv	a3,a5
    80001678:	fd043783          	ld	a5,-48(s0)
    8000167c:	00d787b3          	add	a5,a5,a3
    80001680:	00f77713          	andi	a4,a4,15
    80001684:	0ff77713          	zext.b	a4,a4
    80001688:	00e78023          	sb	a4,0(a5)
    8000168c:	fec42783          	lw	a5,-20(s0)
    80001690:	fff78793          	addi	a5,a5,-1
    80001694:	fd043703          	ld	a4,-48(s0)
    80001698:	00f707b3          	add	a5,a4,a5
    8000169c:	0007c783          	lbu	a5,0(a5)
    800016a0:	00078713          	mv	a4,a5
    800016a4:	00900793          	li	a5,9
    800016a8:	02e7ec63          	bltu	a5,a4,800016e0 <hex2str+0x9c>
    800016ac:	fec42783          	lw	a5,-20(s0)
    800016b0:	fff78793          	addi	a5,a5,-1
    800016b4:	fd043703          	ld	a4,-48(s0)
    800016b8:	00f707b3          	add	a5,a4,a5
    800016bc:	0007c703          	lbu	a4,0(a5)
    800016c0:	fec42783          	lw	a5,-20(s0)
    800016c4:	fff78793          	addi	a5,a5,-1
    800016c8:	fd043683          	ld	a3,-48(s0)
    800016cc:	00f687b3          	add	a5,a3,a5
    800016d0:	0307071b          	addiw	a4,a4,48
    800016d4:	0ff77713          	zext.b	a4,a4
    800016d8:	00e78023          	sb	a4,0(a5)
    800016dc:	0340006f          	j	80001710 <hex2str+0xcc>
    800016e0:	fec42783          	lw	a5,-20(s0)
    800016e4:	fff78793          	addi	a5,a5,-1
    800016e8:	fd043703          	ld	a4,-48(s0)
    800016ec:	00f707b3          	add	a5,a4,a5
    800016f0:	0007c703          	lbu	a4,0(a5)
    800016f4:	fec42783          	lw	a5,-20(s0)
    800016f8:	fff78793          	addi	a5,a5,-1
    800016fc:	fd043683          	ld	a3,-48(s0)
    80001700:	00f687b3          	add	a5,a3,a5
    80001704:	0577071b          	addiw	a4,a4,87
    80001708:	0ff77713          	zext.b	a4,a4
    8000170c:	00e78023          	sb	a4,0(a5)
    80001710:	fd843783          	ld	a5,-40(s0)
    80001714:	0047d793          	srli	a5,a5,0x4
    80001718:	fcf43c23          	sd	a5,-40(s0)
    8000171c:	fd843783          	ld	a5,-40(s0)
    80001720:	f40790e3          	bnez	a5,80001660 <hex2str+0x1c>
    80001724:	fe042423          	sw	zero,-24(s0)
    80001728:	0800006f          	j	800017a8 <hex2str+0x164>
    8000172c:	fe842783          	lw	a5,-24(s0)
    80001730:	fd043703          	ld	a4,-48(s0)
    80001734:	00f707b3          	add	a5,a4,a5
    80001738:	0007c783          	lbu	a5,0(a5)
    8000173c:	fef403a3          	sb	a5,-25(s0)
    80001740:	fec42783          	lw	a5,-20(s0)
    80001744:	00078713          	mv	a4,a5
    80001748:	fe842783          	lw	a5,-24(s0)
    8000174c:	40f707bb          	subw	a5,a4,a5
    80001750:	0007879b          	sext.w	a5,a5
    80001754:	fff78793          	addi	a5,a5,-1
    80001758:	fd043703          	ld	a4,-48(s0)
    8000175c:	00f70733          	add	a4,a4,a5
    80001760:	fe842783          	lw	a5,-24(s0)
    80001764:	fd043683          	ld	a3,-48(s0)
    80001768:	00f687b3          	add	a5,a3,a5
    8000176c:	00074703          	lbu	a4,0(a4)
    80001770:	00e78023          	sb	a4,0(a5)
    80001774:	fec42783          	lw	a5,-20(s0)
    80001778:	00078713          	mv	a4,a5
    8000177c:	fe842783          	lw	a5,-24(s0)
    80001780:	40f707bb          	subw	a5,a4,a5
    80001784:	0007879b          	sext.w	a5,a5
    80001788:	fff78793          	addi	a5,a5,-1
    8000178c:	fd043703          	ld	a4,-48(s0)
    80001790:	00f707b3          	add	a5,a4,a5
    80001794:	fe744703          	lbu	a4,-25(s0)
    80001798:	00e78023          	sb	a4,0(a5)
    8000179c:	fe842783          	lw	a5,-24(s0)
    800017a0:	0017879b          	addiw	a5,a5,1
    800017a4:	fef42423          	sw	a5,-24(s0)
    800017a8:	fec42783          	lw	a5,-20(s0)
    800017ac:	01f7d71b          	srliw	a4,a5,0x1f
    800017b0:	00f707bb          	addw	a5,a4,a5
    800017b4:	4017d79b          	sraiw	a5,a5,0x1
    800017b8:	0007871b          	sext.w	a4,a5
    800017bc:	fe842783          	lw	a5,-24(s0)
    800017c0:	0007879b          	sext.w	a5,a5
    800017c4:	f6e7c4e3          	blt	a5,a4,8000172c <hex2str+0xe8>
    800017c8:	fec42783          	lw	a5,-20(s0)
    800017cc:	fd043703          	ld	a4,-48(s0)
    800017d0:	00f707b3          	add	a5,a4,a5
    800017d4:	00078023          	sb	zero,0(a5)
    800017d8:	00000013          	nop
    800017dc:	02813403          	ld	s0,40(sp)
    800017e0:	03010113          	addi	sp,sp,48
    800017e4:	00008067          	ret

00000000800017e8 <memset>:
    800017e8:	fc010113          	addi	sp,sp,-64
    800017ec:	02813c23          	sd	s0,56(sp)
    800017f0:	04010413          	addi	s0,sp,64
    800017f4:	fca43c23          	sd	a0,-40(s0)
    800017f8:	fcb43823          	sd	a1,-48(s0)
    800017fc:	fcc43423          	sd	a2,-56(s0)
    80001800:	fd843783          	ld	a5,-40(s0)
    80001804:	fef43023          	sd	a5,-32(s0)
    80001808:	fe042623          	sw	zero,-20(s0)
    8000180c:	0280006f          	j	80001834 <memset+0x4c>
    80001810:	fec42783          	lw	a5,-20(s0)
    80001814:	00379793          	slli	a5,a5,0x3
    80001818:	fe043703          	ld	a4,-32(s0)
    8000181c:	00f707b3          	add	a5,a4,a5
    80001820:	fd043703          	ld	a4,-48(s0)
    80001824:	00e7b023          	sd	a4,0(a5)
    80001828:	fec42783          	lw	a5,-20(s0)
    8000182c:	0017879b          	addiw	a5,a5,1
    80001830:	fef42623          	sw	a5,-20(s0)
    80001834:	fec42703          	lw	a4,-20(s0)
    80001838:	fc843783          	ld	a5,-56(s0)
    8000183c:	0037d793          	srli	a5,a5,0x3
    80001840:	fcf768e3          	bltu	a4,a5,80001810 <memset+0x28>
    80001844:	00000013          	nop
    80001848:	00000013          	nop
    8000184c:	03813403          	ld	s0,56(sp)
    80001850:	04010113          	addi	sp,sp,64
    80001854:	00008067          	ret

0000000080001858 <malloc>:
    80001858:	fd010113          	addi	sp,sp,-48
    8000185c:	02813423          	sd	s0,40(sp)
    80001860:	03010413          	addi	s0,sp,48
    80001864:	fca43c23          	sd	a0,-40(s0)
    80001868:	0000c797          	auipc	a5,0xc
    8000186c:	b0078793          	addi	a5,a5,-1280 # 8000d368 <_bss_end>
    80001870:	0007b703          	ld	a4,0(a5)
    80001874:	0000c797          	auipc	a5,0xc
    80001878:	acc78793          	addi	a5,a5,-1332 # 8000d340 <index.0>
    8000187c:	0007b783          	ld	a5,0(a5)
    80001880:	00f707b3          	add	a5,a4,a5
    80001884:	fef43423          	sd	a5,-24(s0)
    80001888:	0000c797          	auipc	a5,0xc
    8000188c:	ab878793          	addi	a5,a5,-1352 # 8000d340 <index.0>
    80001890:	0007b703          	ld	a4,0(a5)
    80001894:	fd843783          	ld	a5,-40(s0)
    80001898:	00f70733          	add	a4,a4,a5
    8000189c:	0000c797          	auipc	a5,0xc
    800018a0:	aa478793          	addi	a5,a5,-1372 # 8000d340 <index.0>
    800018a4:	00e7b023          	sd	a4,0(a5)
    800018a8:	fe843783          	ld	a5,-24(s0)
    800018ac:	00078513          	mv	a0,a5
    800018b0:	02813403          	ld	s0,40(sp)
    800018b4:	03010113          	addi	sp,sp,48
    800018b8:	00008067          	ret
